; Function Attrs: alwaysinline norecurse nounwind uwtable
define internal void @_ZN8LightGBM18MultiValBinWrapper8HistMoveILb1ELi16ELi8EEEvRKSt6vectorIdNS_6Common18AlignmentAllocatorIdLm32EEEE.omp_outlined.1(ptr noalias noundef readonly captures(none) %0, ptr noalias readnone captures(none) %1, ptr noundef readonly captures(none) %2, ptr noundef nonnull readonly align 8 captures(none) dereferenceable(8) %3, ptr noundef nonnull readonly align 8 captures(none) dereferenceable(8) %4) #5 {
  %6 = alloca i32, align 4
  %7 = alloca i32, align 4
  %8 = alloca i32, align 4
  %9 = alloca i32, align 4
  %10 = getelementptr inbounds nuw i8, ptr %2, i64 124
  %11 = load i32, ptr %10, align 4, !tbaa !44
  %12 = icmp sgt i32 %11, 0
  br i1 %12, label %13, label %28

13:                                               ; preds = %5
  %14 = add nsw i32 %11, -1
  call void @llvm.lifetime.start.p0(i64 4, ptr nonnull %6) #6
  store i32 0, ptr %6, align 4, !tbaa !39
  call void @llvm.lifetime.start.p0(i64 4, ptr nonnull %7) #6
  store i32 %14, ptr %7, align 4, !tbaa !39
  call void @llvm.lifetime.start.p0(i64 4, ptr nonnull %8) #6
  store i32 1, ptr %8, align 4, !tbaa !39
  call void @llvm.lifetime.start.p0(i64 4, ptr nonnull %9) #6
  store i32 0, ptr %9, align 4, !tbaa !39
  %15 = load i32, ptr %0, align 4, !tbaa !39
  call void @__kmpc_for_static_init_4(ptr nonnull @1, i32 %15, i32 34, ptr nonnull %9, ptr nonnull %6, ptr nonnull %7, ptr nonnull %8, i32 1, i32 1)
  %16 = load i32, ptr %7, align 4, !tbaa !39
  %17 = call i32 @llvm.smin.i32(i32 %16, i32 %14)
  store i32 %17, ptr %7, align 4, !tbaa !39
  %18 = load i32, ptr %6, align 4, !tbaa !39
  %.not14 = icmp sgt i32 %18, %17
  br i1 %.not14, label %._crit_edge, label %.lr.ph

.lr.ph:                                           ; preds = %13
  %19 = load ptr, ptr %4, align 8, !tbaa !43
  %20 = load ptr, ptr %3, align 8, !tbaa !43
  %21 = sext i32 %18 to i64
  br label %22

22:                                               ; preds = %.lr.ph, %22
  %indvars.iv = phi i64 [ %21, %.lr.ph ], [ %indvars.iv.next, %22 ]
  %23 = getelementptr inbounds i32, ptr %19, i64 %indvars.iv
  %24 = load i32, ptr %23, align 4, !tbaa !39
  %25 = getelementptr inbounds i32, ptr %20, i64 %indvars.iv
  store i32 %24, ptr %25, align 4, !tbaa !39
  %indvars.iv.next = add nsw i64 %indvars.iv, 1
  %26 = load i32, ptr %7, align 4, !tbaa !39
  %27 = sext i32 %26 to i64
  %.not.not = icmp slt i64 %indvars.iv, %27
  br i1 %.not.not, label %22, label %._crit_edge

._crit_edge:                                      ; preds = %22, %13
  call void @__kmpc_for_static_fini(ptr nonnull @1, i32 %15)
  call void @llvm.lifetime.end.p0(i64 4, ptr nonnull %9) #6
  call void @llvm.lifetime.end.p0(i64 4, ptr nonnull %8) #6
  call void @llvm.lifetime.end.p0(i64 4, ptr nonnull %7) #6
  call void @llvm.lifetime.end.p0(i64 4, ptr nonnull %6) #6
  br label %28

28:                                               ; preds = %._crit_edge, %5
  ret void
}